target datalayout = "e-m:e-p270:32:32-p271:32:32-p272:64:64-i64:64-i128:128-f80:128-n8:16:32:64-S128"
target triple = "x86_64-pc-linux-gnu"

%struct._zend_executor_globals = type { %struct._zval_struct, %struct._zval_struct, [32 x ptr], ptr, ptr, %struct._zend_array, %struct._zend_array, ptr, i32, i32, ptr, ptr, ptr, ptr, ptr, ptr, i64, ptr, ptr, i32, i32, i64, i32, i32, i32, i8, i8, %struct.zend_atomic_bool_s, %struct.zend_atomic_bool_s, ptr, i64, ptr, ptr, %struct._zend_array, %struct._zend_array, i32, i8, %struct._zval_struct, %struct._zval_struct, %struct._zend_stack, %struct._zend_stack, %struct._zend_stack, ptr, i32, i32, i64, ptr, ptr, ptr, %struct._zend_objects_store, ptr, ptr, ptr, [3 x %struct._zend_op], ptr, i8, i8, i64, i32, i32, ptr, [16 x %struct._HashTableIterator], ptr, %union._zend_function, %struct._zend_op, %struct._zend_array, i64, %struct.zend_get_gc_buffer, ptr, ptr, ptr, i64, i8, i32, ptr, ptr, i64, %struct._zend_call_stack, i64, i64, [6 x ptr] }
%struct.zend_atomic_bool_s = type { i8 }
%struct._zval_struct = type { %union._zend_value, %union.anon, %union.anon.2 }
%union._zend_value = type { i64 }
%union.anon = type { i32 }
%union.anon.2 = type { i32 }
%struct._zend_stack = type { i32, i32, i32, ptr }
%struct._zend_objects_store = type { ptr, i32, i32, i32 }
%struct._HashTableIterator = type { ptr, i32, i32 }
%union._zend_function = type { %struct._zend_op_array }
%struct._zend_op_array = type { i8, [3 x i8], i32, ptr, ptr, ptr, i32, i32, ptr, ptr, ptr, ptr, i32, i32, i32, i32, ptr, ptr, ptr, ptr, ptr, i32, i32, ptr, ptr, ptr, i32, i32, i32, i32, ptr, ptr, [6 x ptr] }
%struct._zend_op = type { ptr, %union._znode_op, %union._znode_op, %union._znode_op, i32, i32, i8, i8, i8, i8 }
%union._znode_op = type { i32 }
%struct._zend_array = type { %struct._zend_refcounted_h, %union.anon.4, i32, %union.anon.6, i32, i32, i32, i32, i64, ptr }
%struct._zend_refcounted_h = type { i32, %union.anon.3 }
%union.anon.3 = type { i32 }
%union.anon.4 = type { i32 }
%union.anon.6 = type { ptr }
%struct.zend_get_gc_buffer = type { ptr, ptr, ptr }
%struct._zend_call_stack = type { ptr, i64 }
%struct._zend_execute_data = type { ptr, ptr, ptr, ptr, %struct._zval_struct, ptr, ptr, ptr, ptr }
%struct._spl_fixedarray_object = type { %struct._spl_fixedarray, ptr, %struct._zend_object }
%struct._spl_fixedarray = type { i64, ptr, i64 }
%struct._zend_object = type { %struct._zend_refcounted_h, i32, ptr, ptr, ptr, [1 x %struct._zval_struct] }

@.str = private unnamed_addr constant [3 x i8] c"|l\00", align 1
@executor_globals = external global %struct._zend_executor_globals, align 8
@.str.1 = private unnamed_addr constant [35 x i8] c"must be greater than or equal to 0\00", align 1

; Function Attrs: nounwind uwtable
define internal void @spl_fixedarray_default_ctor(ptr noundef %0) #0 {
  %2 = alloca ptr, align 8
  store ptr %0, ptr %2, align 8
  %3 = load ptr, ptr %2, align 8
  %4 = getelementptr inbounds %struct._spl_fixedarray, ptr %3, i32 0, i32 0
  store i64 0, ptr %4, align 8
  %5 = load ptr, ptr %2, align 8
  %6 = getelementptr inbounds %struct._spl_fixedarray, ptr %5, i32 0, i32 1
  store ptr null, ptr %6, align 8
  %7 = load ptr, ptr %2, align 8
  %8 = getelementptr inbounds %struct._spl_fixedarray, ptr %7, i32 0, i32 2
  store i64 -1, ptr %8, align 8
  ret void
}

; Function Attrs: nounwind uwtable
define internal void @spl_fixedarray_init_elems(ptr noundef %0, i64 noundef %1, i64 noundef %2) #0 {
  %4 = alloca ptr, align 8
  %5 = alloca i64, align 8
  %6 = alloca i64, align 8
  %7 = alloca ptr, align 8
  %8 = alloca ptr, align 8
  store ptr %0, ptr %4, align 8
  store i64 %1, ptr %5, align 8
  store i64 %2, ptr %6, align 8
  %9 = load i64, ptr %5, align 8
  %10 = load i64, ptr %6, align 8
  %11 = icmp sle i64 %9, %10
  call void @llvm.assume(i1 %11)
  %12 = load ptr, ptr %4, align 8
  %13 = getelementptr inbounds %struct._spl_fixedarray, ptr %12, i32 0, i32 1
  %14 = load ptr, ptr %13, align 8
  %15 = load i64, ptr %5, align 8
  %16 = getelementptr inbounds %struct._zval_struct, ptr %14, i64 %15
  store ptr %16, ptr %7, align 8
  %17 = load ptr, ptr %4, align 8
  %18 = getelementptr inbounds %struct._spl_fixedarray, ptr %17, i32 0, i32 1
  %19 = load ptr, ptr %18, align 8
  %20 = load i64, ptr %6, align 8
  %21 = getelementptr inbounds %struct._zval_struct, ptr %19, i64 %20
  store ptr %21, ptr %8, align 8
  br label %22

22:                                               ; preds = %31, %3
  %23 = load ptr, ptr %7, align 8
  %24 = load ptr, ptr %8, align 8
  %25 = icmp ne ptr %23, %24
  br i1 %25, label %26, label %32

26:                                               ; preds = %22
  br label %27

27:                                               ; preds = %26
  %28 = load ptr, ptr %7, align 8
  %29 = getelementptr inbounds %struct._zval_struct, ptr %28, i32 1
  store ptr %29, ptr %7, align 8
  %30 = getelementptr inbounds %struct._zval_struct, ptr %28, i32 0, i32 1
  store i32 1, ptr %30, align 8
  br label %31

31:                                               ; preds = %27
  br label %22

32:                                               ; preds = %22
  ret void
}

; Function Attrs: nounwind uwtable
define internal void @spl_fixedarray_init_non_empty_struct(ptr noundef %0, i64 noundef %1) #0 {
  %3 = alloca ptr, align 8
  %4 = alloca i64, align 8
  store ptr %0, ptr %3, align 8
  store i64 %1, ptr %4, align 8
  %5 = load ptr, ptr %3, align 8
  %6 = getelementptr inbounds %struct._spl_fixedarray, ptr %5, i32 0, i32 0
  store i64 0, ptr %6, align 8
  %7 = load i64, ptr %4, align 8
  %8 = icmp ne i64 %7, 0
  br i1 %8, label %9, label %12

9:                                                ; preds = %2
  %10 = load i64, ptr %4, align 8
  %11 = call noalias ptr @_safe_emalloc(i64 noundef %10, i64 noundef 16, i64 noundef 0)
  br label %13

12:                                               ; preds = %2
  br label %13

13:                                               ; preds = %12, %9
  %14 = phi ptr [ %11, %9 ], [ null, %12 ]
  %15 = load ptr, ptr %3, align 8
  %16 = getelementptr inbounds %struct._spl_fixedarray, ptr %15, i32 0, i32 1
  store ptr %14, ptr %16, align 8
  %17 = load i64, ptr %4, align 8
  %18 = load ptr, ptr %3, align 8
  %19 = getelementptr inbounds %struct._spl_fixedarray, ptr %18, i32 0, i32 0
  store i64 %17, ptr %19, align 8
  %20 = load ptr, ptr %3, align 8
  %21 = getelementptr inbounds %struct._spl_fixedarray, ptr %20, i32 0, i32 2
  store i64 -1, ptr %21, align 8
  ret void
}

; Function Attrs: nounwind uwtable
define internal void @spl_fixedarray_init(ptr noundef %0, i64 noundef %1) #0 {
  %3 = alloca ptr, align 8
  %4 = alloca i64, align 8
  store ptr %0, ptr %3, align 8
  store i64 %1, ptr %4, align 8
  %5 = load i64, ptr %4, align 8
  %6 = icmp sgt i64 %5, 0
  br i1 %6, label %7, label %12

7:                                                ; preds = %2
  %8 = load ptr, ptr %3, align 8
  %9 = load i64, ptr %4, align 8
  call void @spl_fixedarray_init_non_empty_struct(ptr noundef %8, i64 noundef %9)
  %10 = load ptr, ptr %3, align 8
  %11 = load i64, ptr %4, align 8
  call void @spl_fixedarray_init_elems(ptr noundef %10, i64 noundef 0, i64 noundef %11)
  br label %14

12:                                               ; preds = %2
  %13 = load ptr, ptr %3, align 8
  call void @spl_fixedarray_default_ctor(ptr noundef %13)
  br label %14

14:                                               ; preds = %12, %7
  ret void
}

; Function Attrs: nounwind uwtable
define internal zeroext i1 @spl_fixedarray_empty(ptr noundef %0) #0 {
  %2 = alloca i1, align 1
  %3 = alloca ptr, align 8
  store ptr %0, ptr %3, align 8
  %4 = load ptr, ptr %3, align 8
  %5 = getelementptr inbounds %struct._spl_fixedarray, ptr %4, i32 0, i32 1
  %6 = load ptr, ptr %5, align 8
  %7 = icmp ne ptr %6, null
  br i1 %7, label %8, label %13

8:                                                ; preds = %1
  %9 = load ptr, ptr %3, align 8
  %10 = getelementptr inbounds %struct._spl_fixedarray, ptr %9, i32 0, i32 0
  %11 = load i64, ptr %10, align 8
  %12 = icmp sgt i64 %11, 0
  call void @llvm.assume(i1 %12)
  store i1 false, ptr %2, align 1
  br label %18

13:                                               ; preds = %1
  %14 = load ptr, ptr %3, align 8
  %15 = getelementptr inbounds %struct._spl_fixedarray, ptr %14, i32 0, i32 0
  %16 = load i64, ptr %15, align 8
  %17 = icmp eq i64 %16, 0
  call void @llvm.assume(i1 %17)
  store i1 true, ptr %2, align 1
  br label %18

18:                                               ; preds = %13, %8
  %19 = load i1, ptr %2, align 1
  ret i1 %19
}

; Function Attrs: nounwind uwtable
define internal ptr @spl_fixed_array_from_obj(ptr noundef %0) #0 {
  %2 = alloca ptr, align 8
  store ptr %0, ptr %2, align 8
  %3 = load ptr, ptr %2, align 8
  %4 = getelementptr inbounds i8, ptr %3, i64 -32
  ret ptr %4
}

; Function Attrs: nounwind uwtable
define hidden void @zim_SplFixedArray___construct(ptr noundef %0, ptr noundef %1) #0 {
  %3 = alloca ptr, align 8
  %4 = alloca ptr, align 8
  %5 = alloca ptr, align 8
  %6 = alloca ptr, align 8
  %7 = alloca i64, align 8
  store ptr %0, ptr %3, align 8
  store ptr %1, ptr %4, align 8
  %8 = load ptr, ptr %3, align 8
  %9 = getelementptr inbounds %struct._zend_execute_data, ptr %8, i32 0, i32 4
  store ptr %9, ptr %5, align 8
  store i64 0, ptr %7, align 8
  %10 = load ptr, ptr %3, align 8
  %11 = getelementptr inbounds %struct._zend_execute_data, ptr %10, i32 0, i32 4
  %12 = getelementptr inbounds %struct._zval_struct, ptr %11, i32 0, i32 2
  %13 = load i32, ptr %12, align 4
  %14 = call i32 (i32, ptr, ...) @zend_parse_parameters(i32 noundef %13, ptr noundef @.str, ptr noundef %7)
  %15 = icmp eq i32 %14, -1
  br i1 %15, label %16, label %21

16:                                               ; preds = %2
  br label %17

17:                                               ; preds = %16
  %18 = load ptr, ptr getelementptr inbounds (%struct._zend_executor_globals, ptr @executor_globals, i32 0, i32 50), align 8
  %19 = icmp ne ptr %18, null
  call void @llvm.assume(i1 %19)
  br label %42

20:                                               ; No predecessors!
  br label %21

21:                                               ; preds = %20, %2
  %22 = load i64, ptr %7, align 8
  %23 = icmp slt i64 %22, 0
  br i1 %23, label %24, label %29

24:                                               ; preds = %21
  call void (i32, ptr, ...) @zend_argument_value_error(i32 noundef 1, ptr noundef @.str.1)
  br label %25

25:                                               ; preds = %24
  %26 = load ptr, ptr getelementptr inbounds (%struct._zend_executor_globals, ptr @executor_globals, i32 0, i32 50), align 8
  %27 = icmp ne ptr %26, null
  call void @llvm.assume(i1 %27)
  br label %42

28:                                               ; No predecessors!
  br label %29

29:                                               ; preds = %28, %21
  %30 = load ptr, ptr %5, align 8
  %31 = getelementptr inbounds %struct._zval_struct, ptr %30, i32 0, i32 0
  %32 = load ptr, ptr %31, align 8
  %33 = call ptr @spl_fixed_array_from_obj(ptr noundef %32)
  store ptr %33, ptr %6, align 8
  %34 = load ptr, ptr %6, align 8
  %35 = getelementptr inbounds %struct._spl_fixedarray_object, ptr %34, i32 0, i32 0
  %36 = call zeroext i1 @spl_fixedarray_empty(ptr noundef %35)
  br i1 %36, label %38, label %37

37:                                               ; preds = %29
  br label %42

38:                                               ; preds = %29
  %39 = load ptr, ptr %6, align 8
  %40 = getelementptr inbounds %struct._spl_fixedarray_object, ptr %39, i32 0, i32 0
  %41 = load i64, ptr %7, align 8
  call void @spl_fixedarray_init(ptr noundef %40, i64 noundef %41)
  br label %42

42:                                               ; preds = %38, %37, %25, %17
  ret void
}