; Function Attrs: nounwind uwtable
define hidden void @zim_SplFixedArray___construct(ptr nocapture noundef readonly %0, ptr nocapture readnone %1) #0 {
  %3 = alloca i64, align 8
  %4 = getelementptr inbounds i8, ptr %0, i64 32
  store i64 0, ptr %3, align 8
  %5 = getelementptr inbounds i8, ptr %0, i64 44
  %6 = load i32, ptr %5, align 4
  %7 = call i32 (i32, ptr, ...) @zend_parse_parameters(i32 noundef %6, ptr noundef nonnull @.str, ptr noundef nonnull %3) #12
  %8 = icmp eq i32 %7, -1
  br i1 %8, label %9, label %12

9:                                                ; preds = %2
  %10 = load ptr, ptr getelementptr inbounds (%struct._zend_executor_globals, ptr @executor_globals, i64 0, i32 50), align 8
  %11 = icmp ne ptr %10, null
  call void @llvm.assume(i1 %11)
  br label %spl_fixedarray_init.exit

12:                                               ; preds = %2
  %13 = load i64, ptr %3, align 8
  %14 = icmp slt i64 %13, 0
  br i1 %14, label %15, label %18

15:                                               ; preds = %12
  call void (i32, ptr, ...) @zend_argument_value_error(i32 noundef 1, ptr noundef nonnull @.str.1) #12
  %16 = load ptr, ptr getelementptr inbounds (%struct._zend_executor_globals, ptr @executor_globals, i64 0, i32 50), align 8
  %17 = icmp ne ptr %16, null
  call void @llvm.assume(i1 %17)
  br label %spl_fixedarray_init.exit

18:                                               ; preds = %12
  %19 = load ptr, ptr %4, align 8
  %20 = getelementptr inbounds i8, ptr %19, i64 -32
  %21 = getelementptr inbounds i8, ptr %19, i64 -24
  %22 = load ptr, ptr %21, align 8
  %.not.i = icmp eq ptr %22, null
  %23 = load i64, ptr %20, align 8
  %24 = icmp eq i64 %23, 0
  %25 = icmp sgt i64 %23, 0
  %.sink.i = select i1 %.not.i, i1 %24, i1 %25
  call void @llvm.assume(i1 %.sink.i)
  br i1 %.not.i, label %26, label %spl_fixedarray_init.exit

26:                                               ; preds = %18
  %.not = icmp eq i64 %13, 0
  br i1 %.not, label %32, label %.lr.ph.preheader.i.i

.lr.ph.preheader.i.i:                             ; preds = %26
  store i64 0, ptr %20, align 8
  %27 = call noalias ptr @_safe_emalloc(i64 noundef %13, i64 noundef 16, i64 noundef 0) #12
  store ptr %27, ptr %21, align 8
  store i64 %13, ptr %20, align 8
  %28 = getelementptr inbounds i8, ptr %19, i64 -16
  store i64 -1, ptr %28, align 8
  %29 = getelementptr inbounds %struct._zval_struct, ptr %27, i64 %13
  br label %.lr.ph.i.i

.lr.ph.i.i:                                       ; preds = %.lr.ph.i.i, %.lr.ph.preheader.i.i
  %.02.i.i = phi ptr [ %30, %.lr.ph.i.i ], [ %27, %.lr.ph.preheader.i.i ]
  %30 = getelementptr inbounds i8, ptr %.02.i.i, i64 16
  %31 = getelementptr inbounds i8, ptr %.02.i.i, i64 8
  store i32 1, ptr %31, align 8
  %.not.i5.i = icmp eq ptr %30, %29
  br i1 %.not.i5.i, label %spl_fixedarray_init.exit, label %.lr.ph.i.i

32:                                               ; preds = %26
  %33 = getelementptr inbounds i8, ptr %19, i64 -16
  call void @llvm.memset.p0.i64(ptr noundef nonnull align 8 dereferenceable(16) %20, i8 0, i64 16, i1 false)
  store i64 -1, ptr %33, align 8
  br label %spl_fixedarray_init.exit

spl_fixedarray_init.exit:                         ; preds = %.lr.ph.i.i, %32, %18, %15, %9
  ret void
}